; Function Attrs: mustprogress nounwind uwtable
define internal void @"_ZZN8pybind1112cpp_function10initializeIZ27test_submodule_numpy_dtypesRNS_7module_EE4$_11NS_4listEJEJNS_4nameENS_5scopeENS_7siblingEEEEvOT_PFT0_DpT1_EDpRKT2_ENUlPNS_6detail15function_recordEE_8__invokeESM_"(ptr nocapture noundef readonly %0) #0 align 2 personality ptr @__gxx_personality_v0 {
  %2 = getelementptr i8, ptr %0, i64 56
  %.val = load ptr, ptr %2, align 8
  %.not.i.i.i.i.i.i = icmp eq ptr %.val, null
  br i1 %.not.i.i.i.i.i.i, label %"_ZZN8pybind1112cpp_function10initializeIZ27test_submodule_numpy_dtypesRNS_7module_EE4$_11NS_4listEJEJNS_4nameENS_5scopeENS_7siblingEEEEvOT_PFT0_DpT1_EDpRKT2_ENKUlPNS_6detail15function_recordEE_clESM_.exit", label %3

3:                                                ; preds = %1
  tail call void @_ZdlPv(ptr noundef nonnull %.val) #28
  br label %"_ZZN8pybind1112cpp_function10initializeIZ27test_submodule_numpy_dtypesRNS_7module_EE4$_11NS_4listEJEJNS_4nameENS_5scopeENS_7siblingEEEEvOT_PFT0_DpT1_EDpRKT2_ENKUlPNS_6detail15function_recordEE_clESM_.exit"

"_ZZN8pybind1112cpp_function10initializeIZ27test_submodule_numpy_dtypesRNS_7module_EE4$_11NS_4listEJEJNS_4nameENS_5scopeENS_7siblingEEEEvOT_PFT0_DpT1_EDpRKT2_ENKUlPNS_6detail15function_recordEE_clESM_.exit": ; preds = %1, %3
  ret void
}